target datalayout = "e-m:e-p270:32:32-p271:32:32-p272:64:64-i64:64-i128:128-f80:128-n8:16:32:64-S128"
target triple = "x86_64-pc-linux-gnu"

%struct.Kit_DsdObj_t_ = type { i32, [0 x i16] }

; Function Attrs: inlinehint nounwind uwtable
define internal i32 @Abc_Lit2Var(i32 noundef %0) #4 {
  %2 = alloca i32, align 4
  store i32 %0, ptr %2, align 4, !tbaa !3
  %3 = load i32, ptr %2, align 4, !tbaa !3
  %4 = ashr i32 %3, 1
  ret i32 %4
}

; Function Attrs: nounwind uwtable
define i32 @Kit_DsdRootNodeHasCommonVars(ptr noundef %0, ptr noundef %1) #0 {
  %3 = alloca i32, align 4
  %4 = alloca ptr, align 8
  %5 = alloca ptr, align 8
  %6 = alloca i32, align 4
  %7 = alloca i32, align 4
  %8 = alloca i32, align 4
  store ptr %0, ptr %4, align 8, !tbaa !39
  store ptr %1, ptr %5, align 8, !tbaa !39
  call void @llvm.lifetime.start.p0(i64 4, ptr %6) #9
  call void @llvm.lifetime.start.p0(i64 4, ptr %7) #9
  store i32 0, ptr %6, align 4, !tbaa !3
  br label %9

9:                                                ; preds = %57, %2
  %10 = load i32, ptr %6, align 4, !tbaa !3
  %11 = load ptr, ptr %4, align 8, !tbaa !39
  %12 = load i32, ptr %11, align 4
  %13 = lshr i32 %12, 26
  %14 = icmp ult i32 %10, %13
  br i1 %14, label %15, label %60

15:                                               ; preds = %9
  %16 = load ptr, ptr %4, align 8, !tbaa !39
  %17 = getelementptr inbounds nuw %struct.Kit_DsdObj_t_, ptr %16, i32 0, i32 1
  %18 = load i32, ptr %6, align 4, !tbaa !3
  %19 = zext i32 %18 to i64
  %20 = getelementptr inbounds nuw [0 x i16], ptr %17, i64 0, i64 %19
  %21 = load i16, ptr %20, align 2, !tbaa !58
  %22 = zext i16 %21 to i32
  %23 = call i32 @Abc_Lit2Var(i32 noundef %22)
  %24 = icmp sge i32 %23, 4
  br i1 %24, label %25, label %26

25:                                               ; preds = %15
  br label %57

26:                                               ; preds = %15
  store i32 0, ptr %7, align 4, !tbaa !3
  br label %27

27:                                               ; preds = %53, %26
  %28 = load i32, ptr %7, align 4, !tbaa !3
  %29 = load ptr, ptr %5, align 8, !tbaa !39
  %30 = load i32, ptr %29, align 4
  %31 = lshr i32 %30, 26
  %32 = icmp ult i32 %28, %31
  br i1 %32, label %33, label %56

33:                                               ; preds = %27
  %34 = load ptr, ptr %4, align 8, !tbaa !39
  %35 = getelementptr inbounds nuw %struct.Kit_DsdObj_t_, ptr %34, i32 0, i32 1
  %36 = load i32, ptr %6, align 4, !tbaa !3
  %37 = zext i32 %36 to i64
  %38 = getelementptr inbounds nuw [0 x i16], ptr %35, i64 0, i64 %37
  %39 = load i16, ptr %38, align 2, !tbaa !58
  %40 = zext i16 %39 to i32
  %41 = call i32 @Abc_Lit2Var(i32 noundef %40)
  %42 = load ptr, ptr %5, align 8, !tbaa !39
  %43 = getelementptr inbounds nuw %struct.Kit_DsdObj_t_, ptr %42, i32 0, i32 1
  %44 = load i32, ptr %7, align 4, !tbaa !3
  %45 = zext i32 %44 to i64
  %46 = getelementptr inbounds nuw [0 x i16], ptr %43, i64 0, i64 %45
  %47 = load i16, ptr %46, align 2, !tbaa !58
  %48 = zext i16 %47 to i32
  %49 = call i32 @Abc_Lit2Var(i32 noundef %48)
  %50 = icmp eq i32 %41, %49
  br i1 %50, label %51, label %52

51:                                               ; preds = %33
  store i32 1, ptr %3, align 4
  store i32 1, ptr %8, align 4
  br label %61

52:                                               ; preds = %33
  br label %53

53:                                               ; preds = %52
  %54 = load i32, ptr %7, align 4, !tbaa !3
  %55 = add i32 %54, 1
  store i32 %55, ptr %7, align 4, !tbaa !3
  br label %27, !llvm.loop !125

56:                                               ; preds = %27
  br label %57

57:                                               ; preds = %56, %25
  %58 = load i32, ptr %6, align 4, !tbaa !3
  %59 = add i32 %58, 1
  store i32 %59, ptr %6, align 4, !tbaa !3
  br label %9, !llvm.loop !126

60:                                               ; preds = %9
  store i32 0, ptr %3, align 4
  store i32 1, ptr %8, align 4
  br label %61

61:                                               ; preds = %60, %51
  call void @llvm.lifetime.end.p0(i64 4, ptr %7) #9
  call void @llvm.lifetime.end.p0(i64 4, ptr %6) #9
  %62 = load i32, ptr %3, align 4
  ret i32 %62
}