; Function Attrs: nofree norecurse nosync nounwind memory(argmem: read) uwtable
define range(i32 0, 2) i32 @Kit_DsdRootNodeHasCommonVars(ptr noundef readonly captures(none) %0, ptr noundef readonly captures(none) %1) local_unnamed_addr #18 {
  %3 = load i32, ptr %0, align 4
  %.not = icmp ult i32 %3, 67108864
  br i1 %.not, label %.loopexit14, label %.lr.ph18

.lr.ph18:                                         ; preds = %2
  %4 = lshr i32 %3, 26
  %5 = getelementptr inbounds nuw i8, ptr %0, i64 4
  %6 = getelementptr inbounds nuw i8, ptr %1, i64 4
  %wide.trip.count25 = zext nneg i32 %4 to i64
  br label %7

7:                                                ; preds = %.lr.ph18, %.loopexit
  %indvars.iv22 = phi i64 [ 0, %.lr.ph18 ], [ %indvars.iv.next23, %.loopexit ]
  %8 = getelementptr inbounds nuw [0 x i16], ptr %5, i64 0, i64 %indvars.iv22
  %9 = load i16, ptr %8, align 2, !tbaa !49
  %10 = icmp ugt i16 %9, 7
  br i1 %10, label %.loopexit, label %.preheader

.preheader:                                       ; preds = %7
  %11 = load i32, ptr %1, align 4
  %.not19 = icmp ult i32 %11, 67108864
  br i1 %.not19, label %.loopexit, label %.lr.ph.preheader

.lr.ph.preheader:                                 ; preds = %.preheader
  %12 = lshr i32 %11, 26
  %wide.trip.count = zext nneg i32 %12 to i64
  br label %.lr.ph

13:                                               ; preds = %.lr.ph
  %indvars.iv.next = add nuw nsw i64 %indvars.iv, 1
  %exitcond.not = icmp eq i64 %indvars.iv.next, %wide.trip.count
  br i1 %exitcond.not, label %.loopexit, label %.lr.ph, !llvm.loop !114

.lr.ph:                                           ; preds = %.lr.ph.preheader, %13
  %indvars.iv = phi i64 [ 0, %.lr.ph.preheader ], [ %indvars.iv.next, %13 ]
  %14 = getelementptr inbounds nuw [0 x i16], ptr %6, i64 0, i64 %indvars.iv
  %15 = load i16, ptr %14, align 2, !tbaa !49
  %.unshifted = xor i16 %15, %9
  %16 = icmp ult i16 %.unshifted, 2
  br i1 %16, label %.loopexit14, label %13

.loopexit:                                        ; preds = %13, %.preheader, %7
  %indvars.iv.next23 = add nuw nsw i64 %indvars.iv22, 1
  %exitcond26.not = icmp eq i64 %indvars.iv.next23, %wide.trip.count25
  br i1 %exitcond26.not, label %.loopexit14, label %7, !llvm.loop !115

.loopexit14:                                      ; preds = %.loopexit, %.lr.ph, %2
  %.013 = phi i32 [ 0, %2 ], [ 1, %.lr.ph ], [ 0, %.loopexit ]
  ret i32 %.013
}